; ModuleID = '50/956.cpp'
source_filename = "50/956.cpp"
target datalayout = "e-m:e-p270:32:32-p271:32:32-p272:64:64-i64:64-f80:128-n8:16:32:64-S128"
target triple = "x86_64-pc-linux-gnu"

%"class.std::ios_base::Init" = type { i8 }
%"class.std::basic_istream" = type { i32 (...)**, i64, %"class.std::basic_ios" }
%"class.std::basic_ios" = type { %"class.std::ios_base", %"class.std::basic_ostream"*, i8, i8, %"class.std::basic_streambuf"*, %"class.std::ctype"*, %"class.std::num_put"*, %"class.std::num_get"* }
%"class.std::ios_base" = type { i32 (...)**, i64, i64, i32, i32, i32, %"struct.std::ios_base::_Callback_list"*, %"struct.std::ios_base::_Words", [8 x %"struct.std::ios_base::_Words"], i32, %"struct.std::ios_base::_Words"*, %"class.std::locale" }
%"struct.std::ios_base::_Callback_list" = type { %"struct.std::ios_base::_Callback_list"*, void (i32, %"class.std::ios_base"*, i32)*, i32, i32 }
%"struct.std::ios_base::_Words" = type { i8*, i64 }
%"class.std::locale" = type { %"class.std::locale::_Impl"* }
%"class.std::locale::_Impl" = type { i32, %"class.std::locale::facet"**, i64, %"class.std::locale::facet"**, i8** }
%"class.std::locale::facet" = type <{ i32 (...)**, i32, [4 x i8] }>
%"class.std::basic_ostream" = type { i32 (...)**, %"class.std::basic_ios" }
%"class.std::basic_streambuf" = type { i32 (...)**, i8*, i8*, i8*, i8*, i8*, i8*, %"class.std::locale" }
%"class.std::ctype" = type <{ %"class.std::locale::facet.base", [4 x i8], %struct.__locale_struct*, i8, [7 x i8], i32*, i32*, i16*, i8, [256 x i8], [256 x i8], i8, [6 x i8] }>
%"class.std::locale::facet.base" = type <{ i32 (...)**, i32 }>
%struct.__locale_struct = type { [13 x %struct.__locale_data*], i16*, i32*, i32*, [13 x i8*] }
%struct.__locale_data = type opaque
%"class.std::num_put" = type { %"class.std::locale::facet.base", [4 x i8] }
%"class.std::num_get" = type { %"class.std::locale::facet.base", [4 x i8] }

@_ZStL8__ioinit = internal global %"class.std::ios_base::Init" zeroinitializer, align 1
@__dso_handle = external hidden global i8
@_ZSt3cin = external dso_local global %"class.std::basic_istream", align 8
@_ZSt4cout = external dso_local global %"class.std::basic_ostream", align 8
@llvm.global_ctors = appending global [1 x { i32, void ()*, i8* }] [{ i32, void ()*, i8* } { i32 65535, void ()* @_GLOBAL__sub_I_956.cpp, i8* null }]

; Function Attrs: noinline uwtable
define internal void @__cxx_global_var_init() #0 section ".text.startup" {
  call void @_ZNSt8ios_base4InitC1Ev(%"class.std::ios_base::Init"* @_ZStL8__ioinit)
  %1 = call i32 @__cxa_atexit(void (i8*)* bitcast (void (%"class.std::ios_base::Init"*)* @_ZNSt8ios_base4InitD1Ev to void (i8*)*), i8* getelementptr inbounds (%"class.std::ios_base::Init", %"class.std::ios_base::Init"* @_ZStL8__ioinit, i32 0, i32 0), i8* @__dso_handle) #3
  ret void
}

declare dso_local void @_ZNSt8ios_base4InitC1Ev(%"class.std::ios_base::Init"*) unnamed_addr #1

; Function Attrs: nounwind
declare dso_local void @_ZNSt8ios_base4InitD1Ev(%"class.std::ios_base::Init"*) unnamed_addr #2

; Function Attrs: nounwind
declare dso_local i32 @__cxa_atexit(void (i8*)*, i8*, i8*) #3

; Function Attrs: noinline norecurse uwtable
define dso_local i32 @main() #4 {
  %1 = alloca i32, align 4
  %2 = alloca i32, align 4
  %3 = alloca i32, align 4
  %4 = alloca i32, align 4
  %5 = alloca i32, align 4
  %6 = alloca i32, align 4
  %7 = alloca [14 x i32], align 16
  %8 = alloca i32, align 4
  store i32 0, i32* %1, align 4
  store i32 0, i32* %5, align 4
  %9 = call dereferenceable(280) %"class.std::basic_istream"* @_ZNSirsERi(%"class.std::basic_istream"* @_ZSt3cin, i32* dereferenceable(4) %2)
  %10 = load i32, i32* %2, align 4
  store i32 %10, i32* %6, align 4
  %11 = getelementptr inbounds [14 x i32], [14 x i32]* %7, i64 0, i64 12
  store i32 31, i32* %11, align 16
  %12 = getelementptr inbounds [14 x i32], [14 x i32]* %7, i64 0, i64 10
  store i32 31, i32* %12, align 8
  %13 = getelementptr inbounds [14 x i32], [14 x i32]* %7, i64 0, i64 8
  store i32 31, i32* %13, align 16
  %14 = getelementptr inbounds [14 x i32], [14 x i32]* %7, i64 0, i64 7
  store i32 31, i32* %14, align 4
  %15 = getelementptr inbounds [14 x i32], [14 x i32]* %7, i64 0, i64 5
  store i32 31, i32* %15, align 4
  %16 = getelementptr inbounds [14 x i32], [14 x i32]* %7, i64 0, i64 3
  store i32 31, i32* %16, align 4
  %17 = getelementptr inbounds [14 x i32], [14 x i32]* %7, i64 0, i64 1
  store i32 31, i32* %17, align 4
  %18 = getelementptr inbounds [14 x i32], [14 x i32]* %7, i64 0, i64 11
  store i32 30, i32* %18, align 4
  %19 = getelementptr inbounds [14 x i32], [14 x i32]* %7, i64 0, i64 9
  store i32 30, i32* %19, align 4
  %20 = getelementptr inbounds [14 x i32], [14 x i32]* %7, i64 0, i64 6
  store i32 30, i32* %20, align 8
  %21 = getelementptr inbounds [14 x i32], [14 x i32]* %7, i64 0, i64 4
  store i32 30, i32* %21, align 16
  %22 = getelementptr inbounds [14 x i32], [14 x i32]* %7, i64 0, i64 2
  store i32 28, i32* %22, align 8
  store i32 1, i32* %3, align 4
  br label %23

23:                                               ; preds = %58, %0
  %24 = load i32, i32* %3, align 4
  %25 = icmp sle i32 %24, 12
  br i1 %25, label %26, label %61

26:                                               ; preds = %23
  store i32 1, i32* %8, align 4
  br label %27

27:                                               ; preds = %38, %26
  %28 = load i32, i32* %8, align 4
  %29 = load i32, i32* %3, align 4
  %30 = icmp slt i32 %28, %29
  br i1 %30, label %31, label %41

31:                                               ; preds = %27
  %32 = load i32, i32* %8, align 4
  %33 = sext i32 %32 to i64
  %34 = getelementptr inbounds [14 x i32], [14 x i32]* %7, i64 0, i64 %33
  %35 = load i32, i32* %34, align 4
  %36 = load i32, i32* %5, align 4
  %37 = add nsw i32 %36, %35
  store i32 %37, i32* %5, align 4
  br label %38

38:                                               ; preds = %31
  %39 = load i32, i32* %8, align 4
  %40 = add nsw i32 %39, 1
  store i32 %40, i32* %8, align 4
  br label %27

41:                                               ; preds = %27
  %42 = load i32, i32* %5, align 4
  %43 = add nsw i32 %42, 12
  store i32 %43, i32* %5, align 4
  %44 = load i32, i32* %5, align 4
  %45 = srem i32 %44, 7
  store i32 %45, i32* %4, align 4
  %46 = load i32, i32* %2, align 4
  %47 = load i32, i32* %4, align 4
  %48 = add nsw i32 %46, %47
  store i32 %48, i32* %2, align 4
  %49 = load i32, i32* %2, align 4
  %50 = srem i32 %49, 7
  %51 = icmp eq i32 %50, 5
  br i1 %51, label %52, label %56

52:                                               ; preds = %41
  %53 = load i32, i32* %3, align 4
  %54 = call dereferenceable(272) %"class.std::basic_ostream"* @_ZNSolsEi(%"class.std::basic_ostream"* @_ZSt4cout, i32 %53)
  %55 = call dereferenceable(272) %"class.std::basic_ostream"* @_ZNSolsEPFRSoS_E(%"class.std::basic_ostream"* %54, %"class.std::basic_ostream"* (%"class.std::basic_ostream"*)* @_ZSt4endlIcSt11char_traitsIcEERSt13basic_ostreamIT_T0_ES6_)
  br label %56

56:                                               ; preds = %52, %41
  store i32 0, i32* %5, align 4
  %57 = load i32, i32* %6, align 4
  store i32 %57, i32* %2, align 4
  br label %58

58:                                               ; preds = %56
  %59 = load i32, i32* %3, align 4
  %60 = add nsw i32 %59, 1
  store i32 %60, i32* %3, align 4
  br label %23

61:                                               ; preds = %23
  ret i32 0
}

declare dso_local dereferenceable(280) %"class.std::basic_istream"* @_ZNSirsERi(%"class.std::basic_istream"*, i32* dereferenceable(4)) #1

declare dso_local dereferenceable(272) %"class.std::basic_ostream"* @_ZNSolsEi(%"class.std::basic_ostream"*, i32) #1

declare dso_local dereferenceable(272) %"class.std::basic_ostream"* @_ZNSolsEPFRSoS_E(%"class.std::basic_ostream"*, %"class.std::basic_ostream"* (%"class.std::basic_ostream"*)*) #1

declare dso_local dereferenceable(272) %"class.std::basic_ostream"* @_ZSt4endlIcSt11char_traitsIcEERSt13basic_ostreamIT_T0_ES6_(%"class.std::basic_ostream"* dereferenceable(272)) #1

; Function Attrs: noinline uwtable
define internal void @_GLOBAL__sub_I_956.cpp() #0 section ".text.startup" {
  call void @__cxx_global_var_init()
  ret void
}


!llvm.module.flags = !{!0}
!llvm.ident = !{!1}

!0 = !{i32 1, !"wchar_size", i32 4}
!1 = !{!"clang version 10.0.0-4ubuntu1 "}
